ccopy_reg
_reconstructor
p0
(cdicts
DefaultDict
p1
c__builtin__
dict
p2
(dp3
tp4
Rp5
(dp6
S'default'
p7
g0
(g1
g2
(dp8
tp9
Rp10
(dp11
g7
I0
sbsb.ccopy_reg
_reconstructor
p0
(cdicts
DefaultDict
p1
c__builtin__
dict
p2
(dp3
tp4
Rp5
(dp6
S'default'
p7
g0
(g1
g2
(dp8
tp9
Rp10
(dp11
g7
I0
sbsb.